target datalayout = "e-m:e-p270:32:32-p271:32:32-p272:64:64-i64:64-i128:128-f80:128-n8:16:32:64-S128"
target triple = "x86_64-pc-linux-gnu"

%struct.Pxy_t = type { double, double }
%struct.vconfig_s = type { i32, i32, ptr, ptr, ptr, ptr, ptr }

; Function Attrs: nounwind uwtable
define zeroext i1 @directVis(double %0, double %1, i32 noundef %2, double %3, double %4, i32 noundef %5, ptr noundef %6) #0 {
  %8 = alloca i1, align 1
  %9 = alloca %struct.Pxy_t, align 8
  %10 = alloca %struct.Pxy_t, align 8
  %11 = alloca i32, align 4
  %12 = alloca i32, align 4
  %13 = alloca ptr, align 8
  %14 = alloca i32, align 4
  %15 = alloca ptr, align 8
  %16 = alloca ptr, align 8
  %17 = alloca i32, align 4
  %18 = alloca i32, align 4
  %19 = alloca i32, align 4
  %20 = alloca i32, align 4
  %21 = alloca i32, align 4
  %22 = getelementptr inbounds { double, double }, ptr %9, i32 0, i32 0
  store double %0, ptr %22, align 8
  %23 = getelementptr inbounds { double, double }, ptr %9, i32 0, i32 1
  store double %1, ptr %23, align 8
  %24 = getelementptr inbounds { double, double }, ptr %10, i32 0, i32 0
  store double %3, ptr %24, align 8
  %25 = getelementptr inbounds { double, double }, ptr %10, i32 0, i32 1
  store double %4, ptr %25, align 8
  store i32 %2, ptr %11, align 4
  store i32 %5, ptr %12, align 4
  store ptr %6, ptr %13, align 8
  %26 = load ptr, ptr %13, align 8
  %27 = getelementptr inbounds %struct.vconfig_s, ptr %26, i32 0, i32 1
  %28 = load i32, ptr %27, align 4
  store i32 %28, ptr %14, align 4
  %29 = load ptr, ptr %13, align 8
  %30 = getelementptr inbounds %struct.vconfig_s, ptr %29, i32 0, i32 2
  %31 = load ptr, ptr %30, align 8
  store ptr %31, ptr %15, align 8
  %32 = load ptr, ptr %13, align 8
  %33 = getelementptr inbounds %struct.vconfig_s, ptr %32, i32 0, i32 4
  %34 = load ptr, ptr %33, align 8
  store ptr %34, ptr %16, align 8
  %35 = load i32, ptr %11, align 4
  %36 = icmp slt i32 %35, 0
  br i1 %36, label %37, label %58

37:                                               ; preds = %7
  store i32 0, ptr %18, align 4
  store i32 0, ptr %19, align 4
  %38 = load i32, ptr %12, align 4
  %39 = icmp slt i32 %38, 0
  br i1 %39, label %40, label %41

40:                                               ; preds = %37
  store i32 0, ptr %20, align 4
  store i32 0, ptr %21, align 4
  br label %57

41:                                               ; preds = %37
  %42 = load ptr, ptr %13, align 8
  %43 = getelementptr inbounds %struct.vconfig_s, ptr %42, i32 0, i32 3
  %44 = load ptr, ptr %43, align 8
  %45 = load i32, ptr %12, align 4
  %46 = sext i32 %45 to i64
  %47 = getelementptr inbounds i32, ptr %44, i64 %46
  %48 = load i32, ptr %47, align 4
  store i32 %48, ptr %20, align 4
  %49 = load ptr, ptr %13, align 8
  %50 = getelementptr inbounds %struct.vconfig_s, ptr %49, i32 0, i32 3
  %51 = load ptr, ptr %50, align 8
  %52 = load i32, ptr %12, align 4
  %53 = add nsw i32 %52, 1
  %54 = sext i32 %53 to i64
  %55 = getelementptr inbounds i32, ptr %51, i64 %54
  %56 = load i32, ptr %55, align 4
  store i32 %56, ptr %21, align 4
  br label %57

57:                                               ; preds = %41, %40
  br label %145

58:                                               ; preds = %7
  %59 = load i32, ptr %12, align 4
  %60 = icmp slt i32 %59, 0
  br i1 %60, label %61, label %77

61:                                               ; preds = %58
  store i32 0, ptr %18, align 4
  store i32 0, ptr %19, align 4
  %62 = load ptr, ptr %13, align 8
  %63 = getelementptr inbounds %struct.vconfig_s, ptr %62, i32 0, i32 3
  %64 = load ptr, ptr %63, align 8
  %65 = load i32, ptr %11, align 4
  %66 = sext i32 %65 to i64
  %67 = getelementptr inbounds i32, ptr %64, i64 %66
  %68 = load i32, ptr %67, align 4
  store i32 %68, ptr %20, align 4
  %69 = load ptr, ptr %13, align 8
  %70 = getelementptr inbounds %struct.vconfig_s, ptr %69, i32 0, i32 3
  %71 = load ptr, ptr %70, align 8
  %72 = load i32, ptr %11, align 4
  %73 = add nsw i32 %72, 1
  %74 = sext i32 %73 to i64
  %75 = getelementptr inbounds i32, ptr %71, i64 %74
  %76 = load i32, ptr %75, align 4
  store i32 %76, ptr %21, align 4
  br label %144

77:                                               ; preds = %58
  %78 = load i32, ptr %11, align 4
  %79 = load i32, ptr %12, align 4
  %80 = icmp sle i32 %78, %79
  br i1 %80, label %81, label %112

81:                                               ; preds = %77
  %82 = load ptr, ptr %13, align 8
  %83 = getelementptr inbounds %struct.vconfig_s, ptr %82, i32 0, i32 3
  %84 = load ptr, ptr %83, align 8
  %85 = load i32, ptr %11, align 4
  %86 = sext i32 %85 to i64
  %87 = getelementptr inbounds i32, ptr %84, i64 %86
  %88 = load i32, ptr %87, align 4
  store i32 %88, ptr %18, align 4
  %89 = load ptr, ptr %13, align 8
  %90 = getelementptr inbounds %struct.vconfig_s, ptr %89, i32 0, i32 3
  %91 = load ptr, ptr %90, align 8
  %92 = load i32, ptr %11, align 4
  %93 = add nsw i32 %92, 1
  %94 = sext i32 %93 to i64
  %95 = getelementptr inbounds i32, ptr %91, i64 %94
  %96 = load i32, ptr %95, align 4
  store i32 %96, ptr %19, align 4
  %97 = load ptr, ptr %13, align 8
  %98 = getelementptr inbounds %struct.vconfig_s, ptr %97, i32 0, i32 3
  %99 = load ptr, ptr %98, align 8
  %100 = load i32, ptr %12, align 4
  %101 = sext i32 %100 to i64
  %102 = getelementptr inbounds i32, ptr %99, i64 %101
  %103 = load i32, ptr %102, align 4
  store i32 %103, ptr %20, align 4
  %104 = load ptr, ptr %13, align 8
  %105 = getelementptr inbounds %struct.vconfig_s, ptr %104, i32 0, i32 3
  %106 = load ptr, ptr %105, align 8
  %107 = load i32, ptr %12, align 4
  %108 = add nsw i32 %107, 1
  %109 = sext i32 %108 to i64
  %110 = getelementptr inbounds i32, ptr %106, i64 %109
  %111 = load i32, ptr %110, align 4
  store i32 %111, ptr %21, align 4
  br label %143

112:                                              ; preds = %77
  %113 = load ptr, ptr %13, align 8
  %114 = getelementptr inbounds %struct.vconfig_s, ptr %113, i32 0, i32 3
  %115 = load ptr, ptr %114, align 8
  %116 = load i32, ptr %12, align 4
  %117 = sext i32 %116 to i64
  %118 = getelementptr inbounds i32, ptr %115, i64 %117
  %119 = load i32, ptr %118, align 4
  store i32 %119, ptr %18, align 4
  %120 = load ptr, ptr %13, align 8
  %121 = getelementptr inbounds %struct.vconfig_s, ptr %120, i32 0, i32 3
  %122 = load ptr, ptr %121, align 8
  %123 = load i32, ptr %12, align 4
  %124 = add nsw i32 %123, 1
  %125 = sext i32 %124 to i64
  %126 = getelementptr inbounds i32, ptr %122, i64 %125
  %127 = load i32, ptr %126, align 4
  store i32 %127, ptr %19, align 4
  %128 = load ptr, ptr %13, align 8
  %129 = getelementptr inbounds %struct.vconfig_s, ptr %128, i32 0, i32 3
  %130 = load ptr, ptr %129, align 8
  %131 = load i32, ptr %11, align 4
  %132 = sext i32 %131 to i64
  %133 = getelementptr inbounds i32, ptr %130, i64 %132
  %134 = load i32, ptr %133, align 4
  store i32 %134, ptr %20, align 4
  %135 = load ptr, ptr %13, align 8
  %136 = getelementptr inbounds %struct.vconfig_s, ptr %135, i32 0, i32 3
  %137 = load ptr, ptr %136, align 8
  %138 = load i32, ptr %11, align 4
  %139 = add nsw i32 %138, 1
  %140 = sext i32 %139 to i64
  %141 = getelementptr inbounds i32, ptr %137, i64 %140
  %142 = load i32, ptr %141, align 4
  store i32 %142, ptr %21, align 4
  br label %143

143:                                              ; preds = %112, %81
  br label %144

144:                                              ; preds = %143, %61
  br label %145

145:                                              ; preds = %144, %57
  store i32 0, ptr %17, align 4
  br label %146

146:                                              ; preds = %182, %145
  %147 = load i32, ptr %17, align 4
  %148 = load i32, ptr %18, align 4
  %149 = icmp slt i32 %147, %148
  br i1 %149, label %150, label %185

150:                                              ; preds = %146
  %151 = load ptr, ptr %15, align 8
  %152 = load i32, ptr %17, align 4
  %153 = sext i32 %152 to i64
  %154 = getelementptr inbounds %struct.Pxy_t, ptr %151, i64 %153
  %155 = load ptr, ptr %15, align 8
  %156 = load ptr, ptr %16, align 8
  %157 = load i32, ptr %17, align 4
  %158 = sext i32 %157 to i64
  %159 = getelementptr inbounds i32, ptr %156, i64 %158
  %160 = load i32, ptr %159, align 4
  %161 = sext i32 %160 to i64
  %162 = getelementptr inbounds %struct.Pxy_t, ptr %155, i64 %161
  %163 = getelementptr inbounds { double, double }, ptr %9, i32 0, i32 0
  %164 = load double, ptr %163, align 8
  %165 = getelementptr inbounds { double, double }, ptr %9, i32 0, i32 1
  %166 = load double, ptr %165, align 8
  %167 = getelementptr inbounds { double, double }, ptr %10, i32 0, i32 0
  %168 = load double, ptr %167, align 8
  %169 = getelementptr inbounds { double, double }, ptr %10, i32 0, i32 1
  %170 = load double, ptr %169, align 8
  %171 = getelementptr inbounds { double, double }, ptr %154, i32 0, i32 0
  %172 = load double, ptr %171, align 8
  %173 = getelementptr inbounds { double, double }, ptr %154, i32 0, i32 1
  %174 = load double, ptr %173, align 8
  %175 = getelementptr inbounds { double, double }, ptr %162, i32 0, i32 0
  %176 = load double, ptr %175, align 8
  %177 = getelementptr inbounds { double, double }, ptr %162, i32 0, i32 1
  %178 = load double, ptr %177, align 8
  %179 = call zeroext i1 @intersect(double %164, double %166, double %168, double %170, double %172, double %174, double %176, double %178)
  br i1 %179, label %180, label %181

180:                                              ; preds = %150
  store i1 false, ptr %8, align 1
  br label %268

181:                                              ; preds = %150
  br label %182

182:                                              ; preds = %181
  %183 = load i32, ptr %17, align 4
  %184 = add nsw i32 %183, 1
  store i32 %184, ptr %17, align 4
  br label %146

185:                                              ; preds = %146
  %186 = load i32, ptr %19, align 4
  store i32 %186, ptr %17, align 4
  br label %187

187:                                              ; preds = %223, %185
  %188 = load i32, ptr %17, align 4
  %189 = load i32, ptr %20, align 4
  %190 = icmp slt i32 %188, %189
  br i1 %190, label %191, label %226

191:                                              ; preds = %187
  %192 = load ptr, ptr %15, align 8
  %193 = load i32, ptr %17, align 4
  %194 = sext i32 %193 to i64
  %195 = getelementptr inbounds %struct.Pxy_t, ptr %192, i64 %194
  %196 = load ptr, ptr %15, align 8
  %197 = load ptr, ptr %16, align 8
  %198 = load i32, ptr %17, align 4
  %199 = sext i32 %198 to i64
  %200 = getelementptr inbounds i32, ptr %197, i64 %199
  %201 = load i32, ptr %200, align 4
  %202 = sext i32 %201 to i64
  %203 = getelementptr inbounds %struct.Pxy_t, ptr %196, i64 %202
  %204 = getelementptr inbounds { double, double }, ptr %9, i32 0, i32 0
  %205 = load double, ptr %204, align 8
  %206 = getelementptr inbounds { double, double }, ptr %9, i32 0, i32 1
  %207 = load double, ptr %206, align 8
  %208 = getelementptr inbounds { double, double }, ptr %10, i32 0, i32 0
  %209 = load double, ptr %208, align 8
  %210 = getelementptr inbounds { double, double }, ptr %10, i32 0, i32 1
  %211 = load double, ptr %210, align 8
  %212 = getelementptr inbounds { double, double }, ptr %195, i32 0, i32 0
  %213 = load double, ptr %212, align 8
  %214 = getelementptr inbounds { double, double }, ptr %195, i32 0, i32 1
  %215 = load double, ptr %214, align 8
  %216 = getelementptr inbounds { double, double }, ptr %203, i32 0, i32 0
  %217 = load double, ptr %216, align 8
  %218 = getelementptr inbounds { double, double }, ptr %203, i32 0, i32 1
  %219 = load double, ptr %218, align 8
  %220 = call zeroext i1 @intersect(double %205, double %207, double %209, double %211, double %213, double %215, double %217, double %219)
  br i1 %220, label %221, label %222

221:                                              ; preds = %191
  store i1 false, ptr %8, align 1
  br label %268

222:                                              ; preds = %191
  br label %223

223:                                              ; preds = %222
  %224 = load i32, ptr %17, align 4
  %225 = add nsw i32 %224, 1
  store i32 %225, ptr %17, align 4
  br label %187

226:                                              ; preds = %187
  %227 = load i32, ptr %21, align 4
  store i32 %227, ptr %17, align 4
  br label %228

228:                                              ; preds = %264, %226
  %229 = load i32, ptr %17, align 4
  %230 = load i32, ptr %14, align 4
  %231 = icmp slt i32 %229, %230
  br i1 %231, label %232, label %267

232:                                              ; preds = %228
  %233 = load ptr, ptr %15, align 8
  %234 = load i32, ptr %17, align 4
  %235 = sext i32 %234 to i64
  %236 = getelementptr inbounds %struct.Pxy_t, ptr %233, i64 %235
  %237 = load ptr, ptr %15, align 8
  %238 = load ptr, ptr %16, align 8
  %239 = load i32, ptr %17, align 4
  %240 = sext i32 %239 to i64
  %241 = getelementptr inbounds i32, ptr %238, i64 %240
  %242 = load i32, ptr %241, align 4
  %243 = sext i32 %242 to i64
  %244 = getelementptr inbounds %struct.Pxy_t, ptr %237, i64 %243
  %245 = getelementptr inbounds { double, double }, ptr %9, i32 0, i32 0
  %246 = load double, ptr %245, align 8
  %247 = getelementptr inbounds { double, double }, ptr %9, i32 0, i32 1
  %248 = load double, ptr %247, align 8
  %249 = getelementptr inbounds { double, double }, ptr %10, i32 0, i32 0
  %250 = load double, ptr %249, align 8
  %251 = getelementptr inbounds { double, double }, ptr %10, i32 0, i32 1
  %252 = load double, ptr %251, align 8
  %253 = getelementptr inbounds { double, double }, ptr %236, i32 0, i32 0
  %254 = load double, ptr %253, align 8
  %255 = getelementptr inbounds { double, double }, ptr %236, i32 0, i32 1
  %256 = load double, ptr %255, align 8
  %257 = getelementptr inbounds { double, double }, ptr %244, i32 0, i32 0
  %258 = load double, ptr %257, align 8
  %259 = getelementptr inbounds { double, double }, ptr %244, i32 0, i32 1
  %260 = load double, ptr %259, align 8
  %261 = call zeroext i1 @intersect(double %246, double %248, double %250, double %252, double %254, double %256, double %258, double %260)
  br i1 %261, label %262, label %263

262:                                              ; preds = %232
  store i1 false, ptr %8, align 1
  br label %268

263:                                              ; preds = %232
  br label %264

264:                                              ; preds = %263
  %265 = load i32, ptr %17, align 4
  %266 = add nsw i32 %265, 1
  store i32 %266, ptr %17, align 4
  br label %228

267:                                              ; preds = %228
  store i1 true, ptr %8, align 1
  br label %268

268:                                              ; preds = %267, %262, %221, %180
  %269 = load i1, ptr %8, align 1
  ret i1 %269
}