; Function Attrs: nofree norecurse nosync nounwind memory(read, inaccessiblemem: none) uwtable
define zeroext i1 @directVis(double %0, double %1, i32 noundef %2, double %3, double %4, i32 noundef %5, ptr noundef readonly captures(none) %6) local_unnamed_addr #4 {
  %8 = getelementptr inbounds nuw i8, ptr %6, i64 4
  %9 = load i32, ptr %8, align 4
  %10 = getelementptr inbounds nuw i8, ptr %6, i64 8
  %11 = load ptr, ptr %10, align 8
  %12 = getelementptr inbounds nuw i8, ptr %6, i64 24
  %13 = load ptr, ptr %12, align 8
  %14 = icmp slt i32 %2, 0
  %15 = icmp slt i32 %5, 0
  br i1 %14, label %16, label %17

16:                                               ; preds = %7
  br i1 %15, label %.preheader, label %.preheader76.sink.split

17:                                               ; preds = %7
  br i1 %15, label %.preheader76.sink.split, label %18

18:                                               ; preds = %17
  %19 = getelementptr inbounds nuw i8, ptr %6, i64 16
  %20 = load ptr, ptr %19, align 8
  %. = tail call i32 @llvm.umin.i32(i32 %2, i32 %5)
  %.125 = tail call i32 @llvm.umax.i32(i32 %2, i32 %5)
  %21 = zext nneg i32 %. to i64
  %22 = getelementptr inbounds nuw i32, ptr %20, i64 %21
  %23 = load i32, ptr %22, align 4
  %24 = getelementptr inbounds nuw i8, ptr %22, i64 4
  %25 = load i32, ptr %24, align 4
  %26 = zext nneg i32 %.125 to i64
  %27 = getelementptr inbounds nuw i32, ptr %20, i64 %26
  %28 = load i32, ptr %27, align 4
  %29 = getelementptr inbounds nuw i8, ptr %27, i64 4
  %30 = load i32, ptr %29, align 4
  %31 = icmp sgt i32 %23, 0
  br i1 %31, label %.lr.ph.preheader, label %.preheader76

.lr.ph.preheader:                                 ; preds = %18
  %wide.trip.count = zext nneg i32 %23 to i64
  br label %.lr.ph

32:                                               ; preds = %.lr.ph
  %indvars.iv.next = add nuw nsw i64 %indvars.iv, 1
  %exitcond.not = icmp eq i64 %indvars.iv.next, %wide.trip.count
  br i1 %exitcond.not, label %.preheader76, label %.lr.ph

.preheader76.sink.split:                          ; preds = %17, %16
  %.sink123 = phi i32 [ %5, %16 ], [ %2, %17 ]
  %33 = getelementptr inbounds nuw i8, ptr %6, i64 16
  %34 = load ptr, ptr %33, align 8
  %35 = zext nneg i32 %.sink123 to i64
  %36 = getelementptr inbounds nuw i32, ptr %34, i64 %35
  %37 = load i32, ptr %36, align 4
  %38 = getelementptr inbounds nuw i8, ptr %36, i64 4
  %39 = load i32, ptr %38, align 4
  br label %.preheader76

.preheader76:                                     ; preds = %32, %.preheader76.sink.split, %18
  %.0104 = phi i32 [ %30, %18 ], [ %39, %.preheader76.sink.split ], [ %30, %32 ]
  %.068103 = phi i32 [ %28, %18 ], [ %37, %.preheader76.sink.split ], [ %28, %32 ]
  %.069102 = phi i32 [ %25, %18 ], [ 0, %.preheader76.sink.split ], [ %25, %32 ]
  %40 = icmp slt i32 %.069102, %.068103
  br i1 %40, label %.lr.ph81.preheader, label %.preheader

.lr.ph81.preheader:                               ; preds = %.preheader76
  %41 = sext i32 %.069102 to i64
  br label %.lr.ph81

.lr.ph:                                           ; preds = %.lr.ph.preheader, %32
  %indvars.iv = phi i64 [ 0, %.lr.ph.preheader ], [ %indvars.iv.next, %32 ]
  %42 = getelementptr inbounds nuw %struct.Pxy_t, ptr %11, i64 %indvars.iv
  %43 = getelementptr inbounds nuw i32, ptr %13, i64 %indvars.iv
  %44 = load i32, ptr %43, align 4
  %45 = sext i32 %44 to i64
  %46 = getelementptr inbounds %struct.Pxy_t, ptr %11, i64 %45
  %47 = load double, ptr %42, align 8
  %48 = getelementptr inbounds nuw i8, ptr %42, i64 8
  %49 = load double, ptr %48, align 8
  %50 = load double, ptr %46, align 8
  %51 = getelementptr inbounds nuw i8, ptr %46, i64 8
  %52 = load double, ptr %51, align 8
  %53 = tail call fastcc zeroext i1 @intersect(double %0, double %1, double %3, double %4, double %47, double %49, double %50, double %52)
  br i1 %53, label %.loopexit, label %32

54:                                               ; preds = %.lr.ph81
  %indvars.iv.next90 = add nsw i64 %indvars.iv89, 1
  %lftr.wideiv = trunc i64 %indvars.iv.next90 to i32
  %exitcond92.not = icmp eq i32 %.068103, %lftr.wideiv
  br i1 %exitcond92.not, label %.preheader, label %.lr.ph81

.preheader:                                       ; preds = %54, %16, %.preheader76
  %.0104108 = phi i32 [ %.0104, %.preheader76 ], [ 0, %16 ], [ %.0104, %54 ]
  %55 = icmp slt i32 %.0104108, %9
  br i1 %55, label %.lr.ph83.preheader, label %.loopexit

.lr.ph83.preheader:                               ; preds = %.preheader
  %56 = sext i32 %.0104108 to i64
  br label %.lr.ph83

.lr.ph81:                                         ; preds = %.lr.ph81.preheader, %54
  %indvars.iv89 = phi i64 [ %41, %.lr.ph81.preheader ], [ %indvars.iv.next90, %54 ]
  %57 = getelementptr inbounds %struct.Pxy_t, ptr %11, i64 %indvars.iv89
  %58 = getelementptr inbounds i32, ptr %13, i64 %indvars.iv89
  %59 = load i32, ptr %58, align 4
  %60 = sext i32 %59 to i64
  %61 = getelementptr inbounds %struct.Pxy_t, ptr %11, i64 %60
  %62 = load double, ptr %57, align 8
  %63 = getelementptr inbounds nuw i8, ptr %57, i64 8
  %64 = load double, ptr %63, align 8
  %65 = load double, ptr %61, align 8
  %66 = getelementptr inbounds nuw i8, ptr %61, i64 8
  %67 = load double, ptr %66, align 8
  %68 = tail call fastcc zeroext i1 @intersect(double %0, double %1, double %3, double %4, double %62, double %64, double %65, double %67)
  br i1 %68, label %.loopexit, label %54

.lr.ph83:                                         ; preds = %.lr.ph83, %.lr.ph83.preheader
  %indvars.iv93 = phi i64 [ %56, %.lr.ph83.preheader ], [ %indvars.iv.next94, %.lr.ph83 ]
  %69 = getelementptr inbounds %struct.Pxy_t, ptr %11, i64 %indvars.iv93
  %70 = getelementptr inbounds i32, ptr %13, i64 %indvars.iv93
  %71 = load i32, ptr %70, align 4
  %72 = sext i32 %71 to i64
  %73 = getelementptr inbounds %struct.Pxy_t, ptr %11, i64 %72
  %74 = load double, ptr %69, align 8
  %75 = getelementptr inbounds nuw i8, ptr %69, i64 8
  %76 = load double, ptr %75, align 8
  %77 = load double, ptr %73, align 8
  %78 = getelementptr inbounds nuw i8, ptr %73, i64 8
  %79 = load double, ptr %78, align 8
  %80 = tail call fastcc zeroext i1 @intersect(double %0, double %1, double %3, double %4, double %74, double %76, double %77, double %79)
  %indvars.iv.next94 = add nsw i64 %indvars.iv93, 1
  %lftr.wideiv96 = trunc i64 %indvars.iv.next94 to i32
  %exitcond97.not = icmp eq i32 %9, %lftr.wideiv96
  %or.cond = select i1 %80, i1 true, i1 %exitcond97.not
  br i1 %or.cond, label %.loopexit.loopexit, label %.lr.ph83

.loopexit.loopexit:                               ; preds = %.lr.ph83
  %.072.ph = xor i1 %80, true
  br label %.loopexit

.loopexit:                                        ; preds = %.lr.ph, %.lr.ph81, %.loopexit.loopexit, %.preheader
  %.072 = phi i1 [ true, %.preheader ], [ %.072.ph, %.loopexit.loopexit ], [ false, %.lr.ph81 ], [ false, %.lr.ph ]
  ret i1 %.072
}